target datalayout = "e-m:e-p270:32:32-p271:32:32-p272:64:64-i64:64-i128:128-f80:128-n8:16:32:64-S128"
target triple = "x86_64-pc-linux-gnu"

%struct.b2Vec2 = type { float, float }
%struct.b2Transform = type { %struct.b2Vec2, %struct.b2Rot }
%struct.b2Rot = type { float, float }
%struct.b2Polygon = type { [8 x %struct.b2Vec2], [8 x %struct.b2Vec2], %struct.b2Vec2, float, i32 }
%struct.b2ShapeProxy = type { [8 x %struct.b2Vec2], i32, float }
%struct.b2CastOutput = type { %struct.b2Vec2, %struct.b2Vec2, float, i32, i8 }
%struct.b2ShapeCastPairInput = type { %struct.b2ShapeProxy, %struct.b2ShapeProxy, %struct.b2Transform, %struct.b2Transform, %struct.b2Vec2, float }
%struct.b2ShapeCastInput = type { [8 x %struct.b2Vec2], i32, float, %struct.b2Vec2, float }

@b2Transform_identity = internal constant %struct.b2Transform { %struct.b2Vec2 zeroinitializer, %struct.b2Rot { float 1.000000e+00, float 0.000000e+00 } }, align 4

; Function Attrs: nounwind uwtable
define void @b2ShapeCastPolygon(ptr dead_on_unwind noalias writable sret(%struct.b2CastOutput) align 4 %0, ptr noundef %1, ptr noundef %2) #3 {
  %4 = alloca ptr, align 8
  %5 = alloca ptr, align 8
  %6 = alloca %struct.b2ShapeCastPairInput, align 4
  %7 = alloca %struct.b2ShapeProxy, align 4
  %8 = alloca %struct.b2ShapeProxy, align 4
  store ptr %1, ptr %4, align 8, !tbaa !85
  store ptr %2, ptr %5, align 8, !tbaa !45
  call void @llvm.lifetime.start.p0(i64 188, ptr %6) #9
  %9 = getelementptr inbounds nuw %struct.b2ShapeCastPairInput, ptr %6, i32 0, i32 0
  call void @llvm.lifetime.start.p0(i64 72, ptr %7) #9
  %10 = load ptr, ptr %5, align 8, !tbaa !45
  %11 = getelementptr inbounds nuw %struct.b2Polygon, ptr %10, i32 0, i32 0
  %12 = getelementptr inbounds [8 x %struct.b2Vec2], ptr %11, i64 0, i64 0
  %13 = load ptr, ptr %5, align 8, !tbaa !45
  %14 = getelementptr inbounds nuw %struct.b2Polygon, ptr %13, i32 0, i32 4
  %15 = load i32, ptr %14, align 4, !tbaa !22
  %16 = load ptr, ptr %5, align 8, !tbaa !45
  %17 = getelementptr inbounds nuw %struct.b2Polygon, ptr %16, i32 0, i32 3
  %18 = load float, ptr %17, align 4, !tbaa !24
  call void @b2MakeProxy(ptr dead_on_unwind writable sret(%struct.b2ShapeProxy) align 4 %7, ptr noundef %12, i32 noundef %15, float noundef %18)
  call void @llvm.memcpy.p0.p0.i64(ptr align 4 %9, ptr align 4 %7, i64 72, i1 false), !tbaa.struct !69
  call void @llvm.lifetime.end.p0(i64 72, ptr %7) #9
  %19 = getelementptr inbounds nuw %struct.b2ShapeCastPairInput, ptr %6, i32 0, i32 1
  call void @llvm.lifetime.start.p0(i64 72, ptr %8) #9
  %20 = load ptr, ptr %4, align 8, !tbaa !85
  %21 = getelementptr inbounds nuw %struct.b2ShapeCastInput, ptr %20, i32 0, i32 0
  %22 = getelementptr inbounds [8 x %struct.b2Vec2], ptr %21, i64 0, i64 0
  %23 = load ptr, ptr %4, align 8, !tbaa !85
  %24 = getelementptr inbounds nuw %struct.b2ShapeCastInput, ptr %23, i32 0, i32 1
  %25 = load i32, ptr %24, align 4, !tbaa !87
  %26 = load ptr, ptr %4, align 8, !tbaa !85
  %27 = getelementptr inbounds nuw %struct.b2ShapeCastInput, ptr %26, i32 0, i32 2
  %28 = load float, ptr %27, align 4, !tbaa !89
  call void @b2MakeProxy(ptr dead_on_unwind writable sret(%struct.b2ShapeProxy) align 4 %8, ptr noundef %22, i32 noundef %25, float noundef %28)
  call void @llvm.memcpy.p0.p0.i64(ptr align 4 %19, ptr align 4 %8, i64 72, i1 false), !tbaa.struct !69
  call void @llvm.lifetime.end.p0(i64 72, ptr %8) #9
  %29 = getelementptr inbounds nuw %struct.b2ShapeCastPairInput, ptr %6, i32 0, i32 2
  call void @llvm.memcpy.p0.p0.i64(ptr align 4 %29, ptr align 4 @b2Transform_identity, i64 16, i1 false), !tbaa.struct !70
  %30 = getelementptr inbounds nuw %struct.b2ShapeCastPairInput, ptr %6, i32 0, i32 3
  call void @llvm.memcpy.p0.p0.i64(ptr align 4 %30, ptr align 4 @b2Transform_identity, i64 16, i1 false), !tbaa.struct !70
  %31 = getelementptr inbounds nuw %struct.b2ShapeCastPairInput, ptr %6, i32 0, i32 4
  %32 = load ptr, ptr %4, align 8, !tbaa !85
  %33 = getelementptr inbounds nuw %struct.b2ShapeCastInput, ptr %32, i32 0, i32 3
  call void @llvm.memcpy.p0.p0.i64(ptr align 4 %31, ptr align 4 %33, i64 8, i1 false), !tbaa.struct !26
  %34 = load ptr, ptr %4, align 8, !tbaa !85
  %35 = getelementptr inbounds nuw %struct.b2ShapeCastInput, ptr %34, i32 0, i32 4
  %36 = load float, ptr %35, align 4, !tbaa !90
  %37 = getelementptr inbounds nuw %struct.b2ShapeCastPairInput, ptr %6, i32 0, i32 5
  store float %36, ptr %37, align 4, !tbaa !83
  call void @b2ShapeCast(ptr dead_on_unwind writable sret(%struct.b2CastOutput) align 4 %0, ptr noundef %6)
  call void @llvm.lifetime.end.p0(i64 188, ptr %6) #9
  ret void
}