; Function Attrs: nounwind uwtable
define void @b2ShapeCastPolygon(ptr dead_on_unwind noalias writable sret(%struct.b2CastOutput) align 4 %0, ptr noundef %1, ptr noundef %2) local_unnamed_addr #14 {
  %4 = alloca %struct.b2ShapeCastPairInput, align 4
  %5 = alloca %struct.b2ShapeProxy, align 4
  call void @llvm.lifetime.start.p0(i64 188, ptr nonnull %4) #17
  %6 = getelementptr inbounds nuw i8, ptr %2, i64 140
  %7 = load i32, ptr %6, align 4, !tbaa !18
  %8 = getelementptr inbounds nuw i8, ptr %2, i64 136
  %9 = load float, ptr %8, align 4, !tbaa !20
  call void @b2MakeProxy(ptr dead_on_unwind nonnull writable sret(%struct.b2ShapeProxy) align 4 %4, ptr noundef %2, i32 noundef %7, float noundef %9) #17
  %10 = getelementptr inbounds nuw i8, ptr %4, i64 72
  call void @llvm.lifetime.start.p0(i64 72, ptr nonnull %5) #17
  %11 = getelementptr inbounds nuw i8, ptr %1, i64 64
  %12 = load i32, ptr %11, align 4, !tbaa !78
  %13 = getelementptr inbounds nuw i8, ptr %1, i64 68
  %14 = load float, ptr %13, align 4, !tbaa !80
  call void @b2MakeProxy(ptr dead_on_unwind nonnull writable sret(%struct.b2ShapeProxy) align 4 %5, ptr noundef %1, i32 noundef %12, float noundef %14) #17
  call void @llvm.memcpy.p0.p0.i64(ptr noundef nonnull align 4 dereferenceable(72) %10, ptr noundef nonnull align 4 dereferenceable(72) %5, i64 72, i1 false), !tbaa.struct !54
  call void @llvm.lifetime.end.p0(i64 72, ptr nonnull %5) #17
  %15 = getelementptr inbounds nuw i8, ptr %4, i64 144
  call void @llvm.memcpy.p0.p0.i64(ptr noundef nonnull align 4 dereferenceable(16) %15, ptr noundef nonnull align 4 dereferenceable(16) @b2Transform_identity, i64 16, i1 false), !tbaa.struct !55
  %16 = getelementptr inbounds nuw i8, ptr %4, i64 160
  call void @llvm.memcpy.p0.p0.i64(ptr noundef nonnull align 4 dereferenceable(16) %16, ptr noundef nonnull align 4 dereferenceable(16) @b2Transform_identity, i64 16, i1 false), !tbaa.struct !55
  %17 = getelementptr inbounds nuw i8, ptr %4, i64 176
  %18 = getelementptr inbounds nuw i8, ptr %1, i64 72
  %19 = load i64, ptr %18, align 4
  store i64 %19, ptr %17, align 4
  %20 = getelementptr inbounds nuw i8, ptr %1, i64 80
  %21 = load float, ptr %20, align 4, !tbaa !81
  %22 = getelementptr inbounds nuw i8, ptr %4, i64 184
  store float %21, ptr %22, align 4, !tbaa !73
  call void @b2ShapeCast(ptr dead_on_unwind writable sret(%struct.b2CastOutput) align 4 %0, ptr noundef nonnull %4) #17
  call void @llvm.lifetime.end.p0(i64 188, ptr nonnull %4) #17
  ret void
}